; Function Attrs: nounwind uwtable
define ptr @Gia_ManCompress2(ptr noundef %0, i32 noundef %1, i32 noundef %2) local_unnamed_addr #0 {
  %4 = getelementptr inbounds nuw i8, ptr %0, i64 736
  %5 = load ptr, ptr %4, align 8, !tbaa !104
  %.not = icmp eq ptr %5, null
  br i1 %.not, label %12, label %6

6:                                                ; preds = %3
  %7 = getelementptr inbounds nuw i8, ptr %0, i64 160
  %8 = load ptr, ptr %7, align 8, !tbaa !84
  %9 = icmp eq ptr %8, null
  br i1 %9, label %10, label %12

10:                                               ; preds = %6
  %11 = tail call i32 @Gia_ManLevelWithBoxes(ptr noundef nonnull %0) #17
  br label %12

12:                                               ; preds = %10, %6, %3
  %13 = tail call ptr @Gia_ManToAig(ptr noundef nonnull %0, i32 noundef 0)
  %14 = tail call ptr @Dar_ManCompress2(ptr noundef %13, i32 noundef 1, i32 noundef %1, i32 noundef 1, i32 noundef 0, i32 noundef %2) #17
  tail call void @Aig_ManStop(ptr noundef %13) #17
  %15 = tail call ptr @Gia_ManFromAig(ptr noundef %14)
  tail call void @Aig_ManStop(ptr noundef %14) #17
  tail call void @Gia_ManTransferTiming(ptr noundef %15, ptr noundef nonnull %0) #17
  ret ptr %15
}